target datalayout = "e-m:e-p270:32:32-p271:32:32-p272:64:64-i64:64-i128:128-f80:128-n8:16:32:64-S128"
target triple = "x86_64-pc-linux-gnu"

%"class.std::__cxx11::basic_string" = type { %"struct.std::__cxx11::basic_string<char>::_Alloc_hider", i64, %union.anon }
%"struct.std::__cxx11::basic_string<char>::_Alloc_hider" = type { ptr }
%union.anon = type { i64, [8 x i8] }
%"struct.std::_Rb_tree_header" = type { %"struct.std::_Rb_tree_node_base", i64 }
%"struct.std::_Rb_tree_node_base" = type { i32, ptr, ptr, ptr }
%"class.benchmark::State" = type { i64, i64, i64, i8, i8, i32, %"class.std::vector", i64, %"class.std::map.6", %"class.std::__cxx11::basic_string", i32, i32, ptr, ptr, ptr, ptr, [8 x i8] }
%"class.std::vector" = type { %"struct.std::_Vector_base" }
%"struct.std::_Vector_base" = type { %"struct.std::_Vector_base<long, std::allocator<long>>::_Vector_impl" }
%"struct.std::_Vector_base<long, std::allocator<long>>::_Vector_impl" = type { %"struct.std::_Vector_base<long, std::allocator<long>>::_Vector_impl_data" }
%"struct.std::_Vector_base<long, std::allocator<long>>::_Vector_impl_data" = type { ptr, ptr, ptr }
%"class.std::map.6" = type { %"class.std::_Rb_tree.7" }
%"class.std::_Rb_tree.7" = type { %"struct.std::_Rb_tree<std::__cxx11::basic_string<char>, std::pair<const std::__cxx11::basic_string<char>, benchmark::Counter>, std::_Select1st<std::pair<const std::__cxx11::basic_string<char>, benchmark::Counter>>, std::less<std::__cxx11::basic_string<char>>>::_Rb_tree_impl" }
%"struct.std::_Rb_tree<std::__cxx11::basic_string<char>, std::pair<const std::__cxx11::basic_string<char>, benchmark::Counter>, std::_Select1st<std::pair<const std::__cxx11::basic_string<char>, benchmark::Counter>>, std::less<std::__cxx11::basic_string<char>>>::_Rb_tree_impl" = type { [8 x i8], %"struct.std::_Rb_tree_header" }
%"class.benchmark::internal::ThreadTimer" = type { i8, i8, double, double, double, double, double }

; Function Attrs: mustprogress nounwind uwtable
define linkonce_odr hidden void @_ZN9benchmark8internal11ThreadTimer16SetIterationTimeEd(ptr noundef nonnull align 8 dereferenceable(48) %0, double noundef %1) #6 comdat align 2 {
  %3 = alloca ptr, align 8
  %4 = alloca double, align 8
  store ptr %0, ptr %3, align 8, !tbaa !28
  store double %1, ptr %4, align 8, !tbaa !17
  %5 = load ptr, ptr %3, align 8
  %6 = load double, ptr %4, align 8, !tbaa !17
  %7 = getelementptr inbounds nuw %"class.benchmark::internal::ThreadTimer", ptr %5, i32 0, i32 6
  %8 = load double, ptr %7, align 8, !tbaa !150
  %9 = fadd double %8, %6
  store double %9, ptr %7, align 8, !tbaa !150
  ret void
}

; Function Attrs: mustprogress uwtable
define void @_ZN9benchmark5State16SetIterationTimeEd(ptr noundef nonnull align 64 dereferenceable(184) %0, double noundef %1) #1 align 2 {
  %3 = alloca ptr, align 8
  %4 = alloca double, align 8
  store ptr %0, ptr %3, align 8, !tbaa !22
  store double %1, ptr %4, align 8, !tbaa !17
  %5 = load ptr, ptr %3, align 8
  %6 = getelementptr inbounds nuw %"class.benchmark::State", ptr %5, i32 0, i32 12
  %7 = load ptr, ptr %6, align 8, !tbaa !63
  %8 = load double, ptr %4, align 8, !tbaa !17
  call void @_ZN9benchmark8internal11ThreadTimer16SetIterationTimeEd(ptr noundef nonnull align 8 dereferenceable(48) %7, double noundef %8)
  ret void
}