; Function Attrs: mustprogress nofree norecurse nosync nounwind willreturn memory(readwrite, inaccessiblemem: none) uwtable
define void @_ZN9benchmark5State16SetIterationTimeEd(ptr noundef nonnull readonly align 64 captures(none) dereferenceable(184) %0, double noundef %1) local_unnamed_addr #10 align 2 {
  %3 = getelementptr inbounds nuw i8, ptr %0, i64 152
  %4 = load ptr, ptr %3, align 8, !tbaa !55
  %5 = getelementptr inbounds nuw i8, ptr %4, i64 40
  %6 = load double, ptr %5, align 8, !tbaa !130
  %7 = fadd double %1, %6
  store double %7, ptr %5, align 8, !tbaa !130
  ret void
}